; Function Attrs: mustprogress uwtable
define void @_ZN4cvc56parser22ResetAssertionsCommand6invokeEPNS_6SolverEPNS0_10SymManagerE(ptr noundef nonnull writeonly align 8 captures(none) dereferenceable(16) %0, ptr noundef %1, ptr noundef nonnull %2) unnamed_addr #3 align 2 personality ptr @__gxx_personality_v0 {
  %4 = alloca %"class.std::__cxx11::basic_string", align 8
  %5 = alloca %"class.std::allocator", align 1
  invoke void @_ZN4cvc56parser10SymManager15resetAssertionsEv(ptr noundef nonnull align 8 dereferenceable(56) %2)
          to label %6 unwind label %10

6:                                                ; preds = %3
  invoke void @_ZNK4cvc56Solver15resetAssertionsEv(ptr noundef nonnull align 8 dereferenceable(32) %1)
          to label %7 unwind label %10

7:                                                ; preds = %6
  %8 = load ptr, ptr @_ZN4cvc56parser14CommandSuccess10s_instanceE, align 8, !tbaa !76
  %9 = getelementptr inbounds nuw i8, ptr %0, i64 8
  store ptr %8, ptr %9, align 8, !tbaa !48
  br label %35

10:                                               ; preds = %6, %3
  %11 = landingpad { ptr, i32 }
          catch ptr @_ZTISt9exception
  %12 = extractvalue { ptr, i32 } %11, 1
  %13 = tail call i32 @llvm.eh.typeid.for.p0(ptr nonnull @_ZTISt9exception) #33
  %14 = icmp eq i32 %12, %13
  br i1 %14, label %15, label %51

15:                                               ; preds = %10
  %16 = extractvalue { ptr, i32 } %11, 0
  %17 = tail call ptr @__cxa_begin_catch(ptr %16) #33
  %18 = invoke noalias noundef nonnull dereferenceable(40) ptr @_Znwm(i64 noundef 40) #37
          to label %19 unwind label %36

19:                                               ; preds = %15
  call void @llvm.lifetime.start.p0(i64 32, ptr nonnull %4) #33
  %20 = load ptr, ptr %17, align 8, !tbaa !6
  %21 = getelementptr inbounds nuw i8, ptr %20, i64 16
  %22 = load ptr, ptr %21, align 8
  %23 = tail call noundef ptr %22(ptr noundef nonnull align 8 dereferenceable(8) %17) #33
  call void @llvm.lifetime.start.p0(i64 1, ptr nonnull %5) #33
  invoke void @_ZNSt7__cxx1112basic_stringIcSt11char_traitsIcESaIcEEC2IS3_EEPKcRKS3_(ptr noundef nonnull align 8 dereferenceable(32) %4, ptr noundef %23, ptr noundef nonnull align 1 dereferenceable(1) %5)
          to label %24 unwind label %38

24:                                               ; preds = %19
  invoke void @_ZN4cvc56parser14CommandFailureC2ERKNSt7__cxx1112basic_stringIcSt11char_traitsIcESaIcEEE(ptr noundef nonnull align 8 dereferenceable(40) %18, ptr noundef nonnull align 8 dereferenceable(32) %4)
          to label %25 unwind label %40

25:                                               ; preds = %24
  %26 = getelementptr inbounds nuw i8, ptr %0, i64 8
  store ptr %18, ptr %26, align 8, !tbaa !48
  %27 = load ptr, ptr %4, align 8, !tbaa !20
  %28 = getelementptr inbounds nuw i8, ptr %4, i64 16
  %29 = icmp eq ptr %27, %28
  br i1 %29, label %_ZNKSt7__cxx1112basic_stringIcSt11char_traitsIcESaIcEE11_M_is_localEv.exit.thread.i.i, label %_ZNKSt7__cxx1112basic_stringIcSt11char_traitsIcESaIcEE11_M_is_localEv.exit.i.i

_ZNKSt7__cxx1112basic_stringIcSt11char_traitsIcESaIcEE11_M_is_localEv.exit.thread.i.i: ; preds = %25
  %30 = getelementptr inbounds nuw i8, ptr %4, i64 8
  %31 = load i64, ptr %30, align 8, !tbaa !24
  %32 = icmp ult i64 %31, 16
  call void @llvm.assume(i1 %32)
  br label %_ZNSt7__cxx1112basic_stringIcSt11char_traitsIcESaIcEED2Ev.exit

_ZNKSt7__cxx1112basic_stringIcSt11char_traitsIcESaIcEE11_M_is_localEv.exit.i.i: ; preds = %25
  %33 = load i64, ptr %28, align 8, !tbaa !3
  %34 = add i64 %33, 1
  call void @_ZdlPvm(ptr noundef %27, i64 noundef %34) #34
  br label %_ZNSt7__cxx1112basic_stringIcSt11char_traitsIcESaIcEED2Ev.exit

_ZNSt7__cxx1112basic_stringIcSt11char_traitsIcESaIcEED2Ev.exit: ; preds = %_ZNKSt7__cxx1112basic_stringIcSt11char_traitsIcESaIcEE11_M_is_localEv.exit.thread.i.i, %_ZNKSt7__cxx1112basic_stringIcSt11char_traitsIcESaIcEE11_M_is_localEv.exit.i.i
  call void @llvm.lifetime.end.p0(i64 1, ptr nonnull %5) #33
  call void @llvm.lifetime.end.p0(i64 32, ptr nonnull %4) #33
  call void @__cxa_end_catch()
  br label %35

35:                                               ; preds = %_ZNSt7__cxx1112basic_stringIcSt11char_traitsIcESaIcEED2Ev.exit, %7
  ret void

36:                                               ; preds = %15
  %37 = landingpad { ptr, i32 }
          cleanup
  br label %50

38:                                               ; preds = %19
  %39 = landingpad { ptr, i32 }
          cleanup
  br label %_ZNSt7__cxx1112basic_stringIcSt11char_traitsIcESaIcEED2Ev.exit16

40:                                               ; preds = %24
  %41 = landingpad { ptr, i32 }
          cleanup
  %42 = load ptr, ptr %4, align 8, !tbaa !20
  %43 = getelementptr inbounds nuw i8, ptr %4, i64 16
  %44 = icmp eq ptr %42, %43
  br i1 %44, label %_ZNKSt7__cxx1112basic_stringIcSt11char_traitsIcESaIcEE11_M_is_localEv.exit.thread.i.i15, label %_ZNKSt7__cxx1112basic_stringIcSt11char_traitsIcESaIcEE11_M_is_localEv.exit.i.i14

_ZNKSt7__cxx1112basic_stringIcSt11char_traitsIcESaIcEE11_M_is_localEv.exit.thread.i.i15: ; preds = %40
  %45 = getelementptr inbounds nuw i8, ptr %4, i64 8
  %46 = load i64, ptr %45, align 8, !tbaa !24
  %47 = icmp ult i64 %46, 16
  call void @llvm.assume(i1 %47)
  br label %_ZNSt7__cxx1112basic_stringIcSt11char_traitsIcESaIcEED2Ev.exit16

_ZNKSt7__cxx1112basic_stringIcSt11char_traitsIcESaIcEE11_M_is_localEv.exit.i.i14: ; preds = %40
  %48 = load i64, ptr %43, align 8, !tbaa !3
  %49 = add i64 %48, 1
  call void @_ZdlPvm(ptr noundef %42, i64 noundef %49) #34
  br label %_ZNSt7__cxx1112basic_stringIcSt11char_traitsIcESaIcEED2Ev.exit16

_ZNSt7__cxx1112basic_stringIcSt11char_traitsIcESaIcEED2Ev.exit16: ; preds = %_ZNKSt7__cxx1112basic_stringIcSt11char_traitsIcESaIcEE11_M_is_localEv.exit.i.i14, %_ZNKSt7__cxx1112basic_stringIcSt11char_traitsIcESaIcEE11_M_is_localEv.exit.thread.i.i15, %38
  %.pn = phi { ptr, i32 } [ %39, %38 ], [ %41, %_ZNKSt7__cxx1112basic_stringIcSt11char_traitsIcESaIcEE11_M_is_localEv.exit.thread.i.i15 ], [ %41, %_ZNKSt7__cxx1112basic_stringIcSt11char_traitsIcESaIcEE11_M_is_localEv.exit.i.i14 ]
  call void @llvm.lifetime.end.p0(i64 1, ptr nonnull %5) #33
  call void @llvm.lifetime.end.p0(i64 32, ptr nonnull %4) #33
  call void @_ZdlPvm(ptr noundef nonnull %18, i64 noundef 40) #34
  br label %50

50:                                               ; preds = %_ZNSt7__cxx1112basic_stringIcSt11char_traitsIcESaIcEED2Ev.exit16, %36
  %.pn.pn = phi { ptr, i32 } [ %.pn, %_ZNSt7__cxx1112basic_stringIcSt11char_traitsIcESaIcEED2Ev.exit16 ], [ %37, %36 ]
  invoke void @__cxa_end_catch()
          to label %51 unwind label %52

51:                                               ; preds = %50, %10
  %.merged = phi { ptr, i32 } [ %11, %10 ], [ %.pn.pn, %50 ]
  resume { ptr, i32 } %.merged

52:                                               ; preds = %50
  %53 = landingpad { ptr, i32 }
          catch ptr null
  %54 = extractvalue { ptr, i32 } %53, 0
  call void @__clang_call_terminate(ptr %54) #35
  unreachable
}